target datalayout = "e-m:e-p270:32:32-p271:32:32-p272:64:64-i64:64-i128:128-f80:128-n8:16:32:64-S128"
target triple = "x86_64-pc-linux-gnu"

%"class.Imath_3_1::half" = type { i16 }
%union.imath_half_uif = type { i32 }

; Function Attrs: noinline noreturn nounwind uwtable
define linkonce_odr hidden void @__clang_call_terminate(ptr noundef %0) #10 comdat {
  %2 = call ptr @__cxa_begin_catch(ptr %0) #3
  call void @_ZSt9terminatev() #12
  unreachable
}

; Function Attrs: inlinehint mustprogress nounwind uwtable
define internal noundef float @_ZL19imath_half_to_floatt(i16 noundef zeroext %0) #6 {
  %2 = alloca i16, align 2
  %3 = alloca %union.imath_half_uif, align 4
  %4 = alloca i32, align 4
  %5 = alloca i32, align 4
  store i16 %0, ptr %2, align 2, !tbaa !33
  call void @llvm.lifetime.start.p0(i64 4, ptr %3) #3
  call void @llvm.lifetime.start.p0(i64 4, ptr %4) #3
  %6 = load i16, ptr %2, align 2, !tbaa !33
  %7 = zext i16 %6 to i32
  %8 = shl i32 %7, 17
  %9 = lshr i32 %8, 4
  store i32 %9, ptr %4, align 4, !tbaa !7
  %10 = load i16, ptr %2, align 2, !tbaa !33
  %11 = zext i16 %10 to i32
  %12 = ashr i32 %11, 15
  %13 = shl i32 %12, 31
  store i32 %13, ptr %3, align 4, !tbaa !42
  %14 = load i32, ptr %4, align 4, !tbaa !7
  %15 = icmp uge i32 %14, 8388608
  %16 = zext i1 %15 to i64
  %17 = call i64 @llvm.expect.i64(i64 %16, i64 1)
  %18 = icmp ne i64 %17, 0
  br i1 %18, label %19, label %35

19:                                               ; preds = %1
  %20 = load i32, ptr %4, align 4, !tbaa !7
  %21 = load i32, ptr %3, align 4, !tbaa !42
  %22 = or i32 %21, %20
  store i32 %22, ptr %3, align 4, !tbaa !42
  %23 = load i32, ptr %4, align 4, !tbaa !7
  %24 = icmp ult i32 %23, 260046848
  %25 = zext i1 %24 to i64
  %26 = call i64 @llvm.expect.i64(i64 %25, i64 1)
  %27 = icmp ne i64 %26, 0
  br i1 %27, label %28, label %31

28:                                               ; preds = %19
  %29 = load i32, ptr %3, align 4, !tbaa !42
  %30 = add i32 %29, 939524096
  store i32 %30, ptr %3, align 4, !tbaa !42
  br label %34

31:                                               ; preds = %19
  %32 = load i32, ptr %3, align 4, !tbaa !42
  %33 = or i32 %32, 2139095040
  store i32 %33, ptr %3, align 4, !tbaa !42
  br label %34

34:                                               ; preds = %31, %28
  br label %55

35:                                               ; preds = %1
  %36 = load i32, ptr %4, align 4, !tbaa !7
  %37 = icmp ne i32 %36, 0
  br i1 %37, label %38, label %54

38:                                               ; preds = %35
  call void @llvm.lifetime.start.p0(i64 4, ptr %5) #3
  %39 = load i32, ptr %4, align 4, !tbaa !7
  %40 = call i32 @llvm.ctlz.i32(i32 %39, i1 true)
  store i32 %40, ptr %5, align 4, !tbaa !7
  %41 = load i32, ptr %5, align 4, !tbaa !7
  %42 = sub i32 %41, 8
  store i32 %42, ptr %5, align 4, !tbaa !7
  %43 = load i32, ptr %3, align 4, !tbaa !42
  %44 = or i32 %43, 947912704
  store i32 %44, ptr %3, align 4, !tbaa !42
  %45 = load i32, ptr %4, align 4, !tbaa !7
  %46 = load i32, ptr %5, align 4, !tbaa !7
  %47 = shl i32 %45, %46
  %48 = load i32, ptr %3, align 4, !tbaa !42
  %49 = or i32 %48, %47
  store i32 %49, ptr %3, align 4, !tbaa !42
  %50 = load i32, ptr %5, align 4, !tbaa !7
  %51 = shl i32 %50, 23
  %52 = load i32, ptr %3, align 4, !tbaa !42
  %53 = sub i32 %52, %51
  store i32 %53, ptr %3, align 4, !tbaa !42
  call void @llvm.lifetime.end.p0(i64 4, ptr %5) #3
  br label %54

54:                                               ; preds = %38, %35
  br label %55

55:                                               ; preds = %54, %34
  %56 = load float, ptr %3, align 4, !tbaa !42
  call void @llvm.lifetime.end.p0(i64 4, ptr %4) #3
  call void @llvm.lifetime.end.p0(i64 4, ptr %3) #3
  ret float %56
}

; Function Attrs: inlinehint mustprogress nounwind uwtable
define linkonce_odr hidden noundef float @_ZNK9Imath_3_14halfcvfEv(ptr noundef nonnull align 2 dereferenceable(2) %0) #6 comdat align 2 personality ptr @__gxx_personality_v0 {
  %2 = alloca ptr, align 8
  store ptr %0, ptr %2, align 8, !tbaa !35
  %3 = load ptr, ptr %2, align 8
  %4 = getelementptr inbounds nuw %"class.Imath_3_1::half", ptr %3, i32 0, i32 0
  %5 = load i16, ptr %4, align 2, !tbaa !37
  %6 = invoke noundef float @_ZL19imath_half_to_floatt(i16 noundef zeroext %5)
          to label %7 unwind label %8

7:                                                ; preds = %1
  ret float %6

8:                                                ; preds = %1
  %9 = landingpad { ptr, i32 }
          catch ptr null
  %10 = extractvalue { ptr, i32 } %9, 0
  call void @__clang_call_terminate(ptr %10) #12
  unreachable
}

; Function Attrs: inlinehint mustprogress nounwind uwtable
define linkonce_odr void @_ZN9Imath_3_14half7setBitsEt(ptr noundef nonnull align 2 dereferenceable(2) %0, i16 noundef zeroext %1) #6 comdat align 2 {
  %3 = alloca ptr, align 8
  %4 = alloca i16, align 2
  store ptr %0, ptr %3, align 8, !tbaa !35
  store i16 %1, ptr %4, align 2, !tbaa !33
  %5 = load ptr, ptr %3, align 8
  %6 = load i16, ptr %4, align 2, !tbaa !33
  %7 = getelementptr inbounds nuw %"class.Imath_3_1::half", ptr %5, i32 0, i32 0
  store i16 %6, ptr %7, align 2, !tbaa !37
  ret void
}

; Function Attrs: mustprogress nounwind uwtable
define hidden noundef float @_ZN19OpenColorIO_v2_5dev22ConvertHalfBitsToFloatEt(i16 noundef zeroext %0) #7 {
  %2 = alloca i16, align 2
  %3 = alloca %"class.Imath_3_1::half", align 2
  store i16 %0, ptr %2, align 2, !tbaa !33
  call void @llvm.lifetime.start.p0(i64 2, ptr %3) #3
  %4 = load i16, ptr %2, align 2, !tbaa !33
  call void @_ZN9Imath_3_14half7setBitsEt(ptr noundef nonnull align 2 dereferenceable(2) %3, i16 noundef zeroext %4) #3
  %5 = call noundef float @_ZNK9Imath_3_14halfcvfEv(ptr noundef nonnull align 2 dereferenceable(2) %3) #3
  call void @llvm.lifetime.end.p0(i64 2, ptr %3) #3
  ret float %5
}