; Function Attrs: mustprogress nofree norecurse nosync nounwind willreturn memory(none) uwtable
define hidden noundef float @_ZN19OpenColorIO_v2_5dev22ConvertHalfBitsToFloatEt(i16 noundef zeroext %0) local_unnamed_addr #4 personality ptr @__gxx_personality_v0 {
  %2 = zext i16 %0 to i32
  %3 = shl nuw nsw i32 %2, 13
  %4 = and i32 %3, 268427264
  %.signext.i.i = sext i16 %0 to i32
  %5 = and i32 %.signext.i.i, -2147483648
  %6 = icmp samesign ugt i32 %4, 8388607
  br i1 %6, label %7, label %14, !prof !22

7:                                                ; preds = %1
  %8 = or disjoint i32 %4, %5
  %9 = icmp samesign ult i32 %4, 260046848
  br i1 %9, label %10, label %12, !prof !22

10:                                               ; preds = %7
  %11 = add nuw nsw i32 %8, 939524096
  br label %_ZNK9Imath_3_14halfcvfEv.exit

12:                                               ; preds = %7
  %13 = or i32 %8, 2139095040
  br label %_ZNK9Imath_3_14halfcvfEv.exit

14:                                               ; preds = %1
  %.not.i.i = icmp eq i32 %4, 0
  br i1 %.not.i.i, label %_ZNK9Imath_3_14halfcvfEv.exit, label %15

15:                                               ; preds = %14
  %16 = tail call range(i32 9, 33) i32 @llvm.ctlz.i32(i32 %4, i1 true)
  %17 = add nsw i32 %16, -8
  %18 = shl i32 %4, %17
  %19 = or i32 %5, %18
  %20 = or i32 %19, 947912704
  %21 = shl nuw nsw i32 %17, 23
  %22 = sub nuw i32 %20, %21
  br label %_ZNK9Imath_3_14halfcvfEv.exit

_ZNK9Imath_3_14halfcvfEv.exit:                    ; preds = %10, %12, %14, %15
  %.sroa.0.0.i.i = phi i32 [ %11, %10 ], [ %13, %12 ], [ %22, %15 ], [ %5, %14 ]
  %23 = bitcast i32 %.sroa.0.0.i.i to float
  ret float %23
}